target datalayout = "e-m:e-p270:32:32-p271:32:32-p272:64:64-i64:64-i128:128-f80:128-n8:16:32:64-S128"
target triple = "x86_64-pc-linux-gnu"

%"class.std::__cxx11::basic_string" = type { %"struct.std::__cxx11::basic_string<char>::_Alloc_hider", i64, %union.anon }
%"struct.std::__cxx11::basic_string<char>::_Alloc_hider" = type { ptr }
%union.anon = type { i64, [8 x i8] }
%"struct.VirtualSiteTopology::VirtualSiteBond" = type <{ %"class.std::__cxx11::basic_string", %"class.std::__cxx11::basic_string", float, [4 x i8] }>
%"class.__gnu_cxx::__normal_iterator.130" = type { ptr }
%class.anon.131 = type { ptr, ptr }
%"struct.__gnu_cxx::__ops::_Iter_pred.133" = type { %class.anon.131 }

; Function Attrs: mustprogress nounwind uwtable
define available_externally noundef ptr @_ZNKSt7__cxx1112basic_stringIcSt11char_traitsIcESaIcEE7_M_dataEv(ptr noundef nonnull align 8 dereferenceable(32) %0) #5 align 2 {
  %2 = alloca ptr, align 8
  store ptr %0, ptr %2, align 8, !tbaa !154
  %3 = load ptr, ptr %2, align 8
  %4 = getelementptr inbounds nuw %"class.std::__cxx11::basic_string", ptr %3, i32 0, i32 0
  %5 = getelementptr inbounds nuw %"struct.std::__cxx11::basic_string<char>::_Alloc_hider", ptr %4, i32 0, i32 0
  %6 = load ptr, ptr %5, align 8, !tbaa !325
  ret ptr %6
}

; Function Attrs: noinline noreturn nounwind uwtable
define linkonce_odr hidden void @__clang_call_terminate(ptr noundef %0) #11 comdat {
  %2 = call ptr @__cxa_begin_catch(ptr %0) #19
  call void @_ZSt9terminatev() #22
  unreachable
}

; Function Attrs: mustprogress nounwind uwtable
define linkonce_odr noundef i32 @_ZNSt11char_traitsIcE7compareEPKcS2_m(ptr noundef %0, ptr noundef %1, i64 noundef %2) #5 comdat align 2 {
  %4 = alloca i32, align 4
  %5 = alloca ptr, align 8
  %6 = alloca ptr, align 8
  %7 = alloca i64, align 8
  store ptr %0, ptr %5, align 8, !tbaa !51
  store ptr %1, ptr %6, align 8, !tbaa !51
  store i64 %2, ptr %7, align 8, !tbaa !132
  %8 = load i64, ptr %7, align 8, !tbaa !132
  %9 = icmp eq i64 %8, 0
  br i1 %9, label %10, label %11

10:                                               ; preds = %3
  store i32 0, ptr %4, align 4
  br label %16

11:                                               ; preds = %3
  %12 = load ptr, ptr %5, align 8, !tbaa !51
  %13 = load ptr, ptr %6, align 8, !tbaa !51
  %14 = load i64, ptr %7, align 8, !tbaa !132
  %15 = call i32 @memcmp(ptr noundef %12, ptr noundef %13, i64 noundef %14) #19
  store i32 %15, ptr %4, align 4
  br label %16

16:                                               ; preds = %11, %10
  %17 = load i32, ptr %4, align 4
  ret i32 %17
}

; Function Attrs: mustprogress nounwind uwtable
define available_externally noundef ptr @_ZNKSt7__cxx1112basic_stringIcSt11char_traitsIcESaIcEE4dataEv(ptr noundef nonnull align 8 dereferenceable(32) %0) #5 align 2 {
  %2 = alloca ptr, align 8
  store ptr %0, ptr %2, align 8, !tbaa !154
  %3 = load ptr, ptr %2, align 8
  %4 = call noundef ptr @_ZNKSt7__cxx1112basic_stringIcSt11char_traitsIcESaIcEE7_M_dataEv(ptr noundef nonnull align 8 dereferenceable(32) %3)
  ret ptr %4
}

; Function Attrs: mustprogress nounwind uwtable
define available_externally noundef i64 @_ZNKSt7__cxx1112basic_stringIcSt11char_traitsIcESaIcEE4sizeEv(ptr noundef nonnull align 8 dereferenceable(32) %0) #5 align 2 {
  %2 = alloca ptr, align 8
  store ptr %0, ptr %2, align 8, !tbaa !154
  %3 = load ptr, ptr %2, align 8
  %4 = getelementptr inbounds nuw %"class.std::__cxx11::basic_string", ptr %3, i32 0, i32 1
  %5 = load i64, ptr %4, align 8, !tbaa !319
  ret i64 %5
}

; Function Attrs: inlinehint mustprogress nounwind uwtable
define linkonce_odr noundef zeroext i1 @_ZSteqIcEN9__gnu_cxx11__enable_ifIXsr9__is_charIT_EE7__valueEbE6__typeERKNSt7__cxx1112basic_stringIS2_St11char_traitsIS2_ESaIS2_EEESC_(ptr noundef nonnull align 8 dereferenceable(32) %0, ptr noundef nonnull align 8 dereferenceable(32) %1) #6 comdat personality ptr @__gxx_personality_v0 {
  %3 = alloca ptr, align 8
  %4 = alloca ptr, align 8
  store ptr %0, ptr %3, align 8, !tbaa !154
  store ptr %1, ptr %4, align 8, !tbaa !154
  %5 = load ptr, ptr %3, align 8, !tbaa !154
  %6 = call noundef i64 @_ZNKSt7__cxx1112basic_stringIcSt11char_traitsIcESaIcEE4sizeEv(ptr noundef nonnull align 8 dereferenceable(32) %5) #19
  %7 = load ptr, ptr %4, align 8, !tbaa !154
  %8 = call noundef i64 @_ZNKSt7__cxx1112basic_stringIcSt11char_traitsIcESaIcEE4sizeEv(ptr noundef nonnull align 8 dereferenceable(32) %7) #19
  %9 = icmp eq i64 %6, %8
  br i1 %9, label %10, label %21

10:                                               ; preds = %2
  %11 = load ptr, ptr %3, align 8, !tbaa !154
  %12 = call noundef ptr @_ZNKSt7__cxx1112basic_stringIcSt11char_traitsIcESaIcEE4dataEv(ptr noundef nonnull align 8 dereferenceable(32) %11) #19
  %13 = load ptr, ptr %4, align 8, !tbaa !154
  %14 = call noundef ptr @_ZNKSt7__cxx1112basic_stringIcSt11char_traitsIcESaIcEE4dataEv(ptr noundef nonnull align 8 dereferenceable(32) %13) #19
  %15 = load ptr, ptr %3, align 8, !tbaa !154
  %16 = call noundef i64 @_ZNKSt7__cxx1112basic_stringIcSt11char_traitsIcESaIcEE4sizeEv(ptr noundef nonnull align 8 dereferenceable(32) %15) #19
  %17 = invoke noundef i32 @_ZNSt11char_traitsIcE7compareEPKcS2_m(ptr noundef %12, ptr noundef %14, i64 noundef %16)
          to label %18 unwind label %23

18:                                               ; preds = %10
  %19 = icmp ne i32 %17, 0
  %20 = xor i1 %19, true
  br label %21

21:                                               ; preds = %18, %2
  %22 = phi i1 [ false, %2 ], [ %20, %18 ]
  ret i1 %22

23:                                               ; preds = %10
  %24 = landingpad { ptr, i32 }
          catch ptr null
  %25 = extractvalue { ptr, i32 } %24, 0
  call void @__clang_call_terminate(ptr %25) #22
  unreachable
}

; Function Attrs: inlinehint mustprogress nounwind uwtable
define internal noundef zeroext i1 @"_ZZL12get_ddb_bondN3gmx8ArrayRefIK19VirtualSiteTopologyEERKNSt7__cxx1112basic_stringIcSt11char_traitsIcESaIcEEESB_SB_ENK3$_1clINS1_15VirtualSiteBondEEEDaRKT_"(ptr noundef nonnull align 8 dereferenceable(16) %0, ptr noundef nonnull align 8 dereferenceable(68) %1) #6 align 2 {
  %3 = alloca ptr, align 8
  %4 = alloca ptr, align 8
  store ptr %0, ptr %3, align 8, !tbaa !195
  store ptr %1, ptr %4, align 8, !tbaa !375
  %5 = load ptr, ptr %3, align 8
  %6 = getelementptr inbounds nuw %class.anon.131, ptr %5, i32 0, i32 0
  %7 = load ptr, ptr %6, align 8, !tbaa !499
  %8 = load ptr, ptr %4, align 8, !tbaa !375
  %9 = getelementptr inbounds nuw %"struct.VirtualSiteTopology::VirtualSiteBond", ptr %8, i32 0, i32 0
  %10 = call noundef zeroext i1 @_ZSteqIcEN9__gnu_cxx11__enable_ifIXsr9__is_charIT_EE7__valueEbE6__typeERKNSt7__cxx1112basic_stringIS2_St11char_traitsIS2_ESaIS2_EEESC_(ptr noundef nonnull align 8 dereferenceable(32) %7, ptr noundef nonnull align 8 dereferenceable(32) %9) #19
  br i1 %10, label %11, label %17

11:                                               ; preds = %2
  %12 = getelementptr inbounds nuw %class.anon.131, ptr %5, i32 0, i32 1
  %13 = load ptr, ptr %12, align 8, !tbaa !501
  %14 = load ptr, ptr %4, align 8, !tbaa !375
  %15 = getelementptr inbounds nuw %"struct.VirtualSiteTopology::VirtualSiteBond", ptr %14, i32 0, i32 1
  %16 = call noundef zeroext i1 @_ZSteqIcEN9__gnu_cxx11__enable_ifIXsr9__is_charIT_EE7__valueEbE6__typeERKNSt7__cxx1112basic_stringIS2_St11char_traitsIS2_ESaIS2_EEESC_(ptr noundef nonnull align 8 dereferenceable(32) %13, ptr noundef nonnull align 8 dereferenceable(32) %15) #19
  br i1 %16, label %31, label %17

17:                                               ; preds = %11, %2
  %18 = getelementptr inbounds nuw %class.anon.131, ptr %5, i32 0, i32 0
  %19 = load ptr, ptr %18, align 8, !tbaa !499
  %20 = load ptr, ptr %4, align 8, !tbaa !375
  %21 = getelementptr inbounds nuw %"struct.VirtualSiteTopology::VirtualSiteBond", ptr %20, i32 0, i32 1
  %22 = call noundef zeroext i1 @_ZSteqIcEN9__gnu_cxx11__enable_ifIXsr9__is_charIT_EE7__valueEbE6__typeERKNSt7__cxx1112basic_stringIS2_St11char_traitsIS2_ESaIS2_EEESC_(ptr noundef nonnull align 8 dereferenceable(32) %19, ptr noundef nonnull align 8 dereferenceable(32) %21) #19
  br i1 %22, label %23, label %29

23:                                               ; preds = %17
  %24 = getelementptr inbounds nuw %class.anon.131, ptr %5, i32 0, i32 1
  %25 = load ptr, ptr %24, align 8, !tbaa !501
  %26 = load ptr, ptr %4, align 8, !tbaa !375
  %27 = getelementptr inbounds nuw %"struct.VirtualSiteTopology::VirtualSiteBond", ptr %26, i32 0, i32 0
  %28 = call noundef zeroext i1 @_ZSteqIcEN9__gnu_cxx11__enable_ifIXsr9__is_charIT_EE7__valueEbE6__typeERKNSt7__cxx1112basic_stringIS2_St11char_traitsIS2_ESaIS2_EEESC_(ptr noundef nonnull align 8 dereferenceable(32) %25, ptr noundef nonnull align 8 dereferenceable(32) %27) #19
  br label %29

29:                                               ; preds = %23, %17
  %30 = phi i1 [ false, %17 ], [ %28, %23 ]
  br label %31

31:                                               ; preds = %29, %11
  %32 = phi i1 [ true, %11 ], [ %30, %29 ]
  ret i1 %32
}

; Function Attrs: mustprogress nounwind uwtable
define linkonce_odr noundef nonnull align 8 dereferenceable(68) ptr @_ZNK9__gnu_cxx17__normal_iteratorIPKN19VirtualSiteTopology15VirtualSiteBondESt6vectorIS2_SaIS2_EEEdeEv(ptr noundef nonnull align 8 dereferenceable(8) %0) #5 comdat align 2 {
  %2 = alloca ptr, align 8
  store ptr %0, ptr %2, align 8, !tbaa !483
  %3 = load ptr, ptr %2, align 8
  %4 = getelementptr inbounds nuw %"class.__gnu_cxx::__normal_iterator.130", ptr %3, i32 0, i32 0
  %5 = load ptr, ptr %4, align 8, !tbaa !485
  ret ptr %5
}

; Function Attrs: mustprogress uwtable
define internal noundef zeroext i1 @"_ZN9__gnu_cxx5__ops10_Iter_predIZL12get_ddb_bondN3gmx8ArrayRefIK19VirtualSiteTopologyEERKNSt7__cxx1112basic_stringIcSt11char_traitsIcESaIcEEESE_SE_E3$_1EclINS_17__normal_iteratorIPKNS4_15VirtualSiteBondESt6vectorISJ_SaISJ_EEEEEEbT_"(ptr noundef nonnull align 8 dereferenceable(16) %0, ptr %1) #0 align 2 {
  %3 = alloca %"class.__gnu_cxx::__normal_iterator.130", align 8
  %4 = alloca ptr, align 8
  %5 = getelementptr inbounds nuw %"class.__gnu_cxx::__normal_iterator.130", ptr %3, i32 0, i32 0
  store ptr %1, ptr %5, align 8
  store ptr %0, ptr %4, align 8, !tbaa !497
  %6 = load ptr, ptr %4, align 8
  %7 = getelementptr inbounds nuw %"struct.__gnu_cxx::__ops::_Iter_pred.133", ptr %6, i32 0, i32 0
  %8 = call noundef nonnull align 8 dereferenceable(68) ptr @_ZNK9__gnu_cxx17__normal_iteratorIPKN19VirtualSiteTopology15VirtualSiteBondESt6vectorIS2_SaIS2_EEEdeEv(ptr noundef nonnull align 8 dereferenceable(8) %3) #19
  %9 = call noundef zeroext i1 @"_ZZL12get_ddb_bondN3gmx8ArrayRefIK19VirtualSiteTopologyEERKNSt7__cxx1112basic_stringIcSt11char_traitsIcESaIcEEESB_SB_ENK3$_1clINS1_15VirtualSiteBondEEEDaRKT_"(ptr noundef nonnull align 8 dereferenceable(16) %7, ptr noundef nonnull align 8 dereferenceable(68) %8)
  ret i1 %9
}