; Function Attrs: mustprogress nofree nounwind willreturn memory(read, inaccessiblemem: none) uwtable
define internal fastcc noundef zeroext i1 @"_ZN9__gnu_cxx5__ops10_Iter_predIZL12get_ddb_bondN3gmx8ArrayRefIK19VirtualSiteTopologyEERKNSt7__cxx1112basic_stringIcSt11char_traitsIcESaIcEEESE_SE_E3$_1EclINS_17__normal_iteratorIPKNS4_15VirtualSiteBondESt6vectorISJ_SaISJ_EEEEEEbT_"(ptr readonly captures(none) %.0.val, ptr readonly captures(none) %.8.val, ptr readonly captures(none) %0) unnamed_addr #19 align 2 personality ptr @__gxx_personality_v0 {
  %2 = getelementptr inbounds nuw i8, ptr %.0.val, i64 8
  %3 = load i64, ptr %2, align 8, !tbaa !31
  %4 = getelementptr inbounds nuw i8, ptr %0, i64 8
  %5 = load i64, ptr %4, align 8, !tbaa !31
  %6 = icmp eq i64 %3, %5
  br i1 %6, label %7, label %_ZSteqIcEN9__gnu_cxx11__enable_ifIXsr9__is_charIT_EE7__valueEbE6__typeERKNSt7__cxx1112basic_stringIS2_St11char_traitsIS2_ESaIS2_EEESC_.exit.thread1.i

7:                                                ; preds = %1
  %8 = icmp eq i64 %3, 0
  br i1 %8, label %_ZSteqIcEN9__gnu_cxx11__enable_ifIXsr9__is_charIT_EE7__valueEbE6__typeERKNSt7__cxx1112basic_stringIS2_St11char_traitsIS2_ESaIS2_EEESC_.exit.thread.i, label %_ZSteqIcEN9__gnu_cxx11__enable_ifIXsr9__is_charIT_EE7__valueEbE6__typeERKNSt7__cxx1112basic_stringIS2_St11char_traitsIS2_ESaIS2_EEESC_.exit.i

_ZSteqIcEN9__gnu_cxx11__enable_ifIXsr9__is_charIT_EE7__valueEbE6__typeERKNSt7__cxx1112basic_stringIS2_St11char_traitsIS2_ESaIS2_EEESC_.exit.i: ; preds = %7
  %9 = load ptr, ptr %0, align 8, !tbaa !26
  %10 = load ptr, ptr %.0.val, align 8, !tbaa !26
  %bcmp.i.i = tail call i32 @bcmp(ptr %10, ptr %9, i64 %3)
  %11 = icmp eq i32 %bcmp.i.i, 0
  br i1 %11, label %_ZSteqIcEN9__gnu_cxx11__enable_ifIXsr9__is_charIT_EE7__valueEbE6__typeERKNSt7__cxx1112basic_stringIS2_St11char_traitsIS2_ESaIS2_EEESC_.exit.thread.i, label %_ZSteqIcEN9__gnu_cxx11__enable_ifIXsr9__is_charIT_EE7__valueEbE6__typeERKNSt7__cxx1112basic_stringIS2_St11char_traitsIS2_ESaIS2_EEESC_.exit.thread1.i

_ZSteqIcEN9__gnu_cxx11__enable_ifIXsr9__is_charIT_EE7__valueEbE6__typeERKNSt7__cxx1112basic_stringIS2_St11char_traitsIS2_ESaIS2_EEESC_.exit.thread.i: ; preds = %_ZSteqIcEN9__gnu_cxx11__enable_ifIXsr9__is_charIT_EE7__valueEbE6__typeERKNSt7__cxx1112basic_stringIS2_St11char_traitsIS2_ESaIS2_EEESC_.exit.i, %7
  %12 = getelementptr inbounds nuw i8, ptr %0, i64 32
  %13 = getelementptr inbounds nuw i8, ptr %.8.val, i64 8
  %14 = load i64, ptr %13, align 8, !tbaa !31
  %15 = getelementptr inbounds nuw i8, ptr %0, i64 40
  %16 = load i64, ptr %15, align 8, !tbaa !31
  %17 = icmp eq i64 %14, %16
  br i1 %17, label %18, label %_ZSteqIcEN9__gnu_cxx11__enable_ifIXsr9__is_charIT_EE7__valueEbE6__typeERKNSt7__cxx1112basic_stringIS2_St11char_traitsIS2_ESaIS2_EEESC_.exit.thread1.i

18:                                               ; preds = %_ZSteqIcEN9__gnu_cxx11__enable_ifIXsr9__is_charIT_EE7__valueEbE6__typeERKNSt7__cxx1112basic_stringIS2_St11char_traitsIS2_ESaIS2_EEESC_.exit.thread.i
  %19 = icmp eq i64 %14, 0
  br i1 %19, label %"_ZZL12get_ddb_bondN3gmx8ArrayRefIK19VirtualSiteTopologyEERKNSt7__cxx1112basic_stringIcSt11char_traitsIcESaIcEEESB_SB_ENK3$_1clINS1_15VirtualSiteBondEEEDaRKT_.exit", label %_ZSteqIcEN9__gnu_cxx11__enable_ifIXsr9__is_charIT_EE7__valueEbE6__typeERKNSt7__cxx1112basic_stringIS2_St11char_traitsIS2_ESaIS2_EEESC_.exit6.i

_ZSteqIcEN9__gnu_cxx11__enable_ifIXsr9__is_charIT_EE7__valueEbE6__typeERKNSt7__cxx1112basic_stringIS2_St11char_traitsIS2_ESaIS2_EEESC_.exit6.i: ; preds = %18
  %20 = load ptr, ptr %12, align 8, !tbaa !26
  %21 = load ptr, ptr %.8.val, align 8, !tbaa !26
  %bcmp.i5.i = tail call i32 @bcmp(ptr %21, ptr %20, i64 %14)
  %22 = icmp eq i32 %bcmp.i5.i, 0
  br i1 %22, label %"_ZZL12get_ddb_bondN3gmx8ArrayRefIK19VirtualSiteTopologyEERKNSt7__cxx1112basic_stringIcSt11char_traitsIcESaIcEEESB_SB_ENK3$_1clINS1_15VirtualSiteBondEEEDaRKT_.exit", label %_ZSteqIcEN9__gnu_cxx11__enable_ifIXsr9__is_charIT_EE7__valueEbE6__typeERKNSt7__cxx1112basic_stringIS2_St11char_traitsIS2_ESaIS2_EEESC_.exit.thread1.i

_ZSteqIcEN9__gnu_cxx11__enable_ifIXsr9__is_charIT_EE7__valueEbE6__typeERKNSt7__cxx1112basic_stringIS2_St11char_traitsIS2_ESaIS2_EEESC_.exit.thread1.i: ; preds = %_ZSteqIcEN9__gnu_cxx11__enable_ifIXsr9__is_charIT_EE7__valueEbE6__typeERKNSt7__cxx1112basic_stringIS2_St11char_traitsIS2_ESaIS2_EEESC_.exit6.i, %_ZSteqIcEN9__gnu_cxx11__enable_ifIXsr9__is_charIT_EE7__valueEbE6__typeERKNSt7__cxx1112basic_stringIS2_St11char_traitsIS2_ESaIS2_EEESC_.exit.thread.i, %_ZSteqIcEN9__gnu_cxx11__enable_ifIXsr9__is_charIT_EE7__valueEbE6__typeERKNSt7__cxx1112basic_stringIS2_St11char_traitsIS2_ESaIS2_EEESC_.exit.i, %1
  %23 = getelementptr inbounds nuw i8, ptr %0, i64 32
  %24 = getelementptr inbounds nuw i8, ptr %0, i64 40
  %25 = load i64, ptr %24, align 8, !tbaa !31
  %26 = icmp eq i64 %3, %25
  br i1 %26, label %27, label %"_ZZL12get_ddb_bondN3gmx8ArrayRefIK19VirtualSiteTopologyEERKNSt7__cxx1112basic_stringIcSt11char_traitsIcESaIcEEESB_SB_ENK3$_1clINS1_15VirtualSiteBondEEEDaRKT_.exit"

27:                                               ; preds = %_ZSteqIcEN9__gnu_cxx11__enable_ifIXsr9__is_charIT_EE7__valueEbE6__typeERKNSt7__cxx1112basic_stringIS2_St11char_traitsIS2_ESaIS2_EEESC_.exit.thread1.i
  %28 = icmp eq i64 %3, 0
  br i1 %28, label %_ZSteqIcEN9__gnu_cxx11__enable_ifIXsr9__is_charIT_EE7__valueEbE6__typeERKNSt7__cxx1112basic_stringIS2_St11char_traitsIS2_ESaIS2_EEESC_.exit8.thread.i, label %_ZSteqIcEN9__gnu_cxx11__enable_ifIXsr9__is_charIT_EE7__valueEbE6__typeERKNSt7__cxx1112basic_stringIS2_St11char_traitsIS2_ESaIS2_EEESC_.exit8.i

_ZSteqIcEN9__gnu_cxx11__enable_ifIXsr9__is_charIT_EE7__valueEbE6__typeERKNSt7__cxx1112basic_stringIS2_St11char_traitsIS2_ESaIS2_EEESC_.exit8.i: ; preds = %27
  %29 = load ptr, ptr %23, align 8, !tbaa !26
  %30 = load ptr, ptr %.0.val, align 8, !tbaa !26
  %bcmp.i7.i = tail call i32 @bcmp(ptr %30, ptr %29, i64 %3)
  %31 = icmp eq i32 %bcmp.i7.i, 0
  br i1 %31, label %_ZSteqIcEN9__gnu_cxx11__enable_ifIXsr9__is_charIT_EE7__valueEbE6__typeERKNSt7__cxx1112basic_stringIS2_St11char_traitsIS2_ESaIS2_EEESC_.exit8.thread.i, label %"_ZZL12get_ddb_bondN3gmx8ArrayRefIK19VirtualSiteTopologyEERKNSt7__cxx1112basic_stringIcSt11char_traitsIcESaIcEEESB_SB_ENK3$_1clINS1_15VirtualSiteBondEEEDaRKT_.exit"

_ZSteqIcEN9__gnu_cxx11__enable_ifIXsr9__is_charIT_EE7__valueEbE6__typeERKNSt7__cxx1112basic_stringIS2_St11char_traitsIS2_ESaIS2_EEESC_.exit8.thread.i: ; preds = %_ZSteqIcEN9__gnu_cxx11__enable_ifIXsr9__is_charIT_EE7__valueEbE6__typeERKNSt7__cxx1112basic_stringIS2_St11char_traitsIS2_ESaIS2_EEESC_.exit8.i, %27
  %32 = getelementptr inbounds nuw i8, ptr %.8.val, i64 8
  %33 = load i64, ptr %32, align 8, !tbaa !31
  %34 = icmp eq i64 %33, %5
  br i1 %34, label %35, label %"_ZZL12get_ddb_bondN3gmx8ArrayRefIK19VirtualSiteTopologyEERKNSt7__cxx1112basic_stringIcSt11char_traitsIcESaIcEEESB_SB_ENK3$_1clINS1_15VirtualSiteBondEEEDaRKT_.exit"

35:                                               ; preds = %_ZSteqIcEN9__gnu_cxx11__enable_ifIXsr9__is_charIT_EE7__valueEbE6__typeERKNSt7__cxx1112basic_stringIS2_St11char_traitsIS2_ESaIS2_EEESC_.exit8.thread.i
  %36 = icmp eq i64 %5, 0
  br i1 %36, label %"_ZZL12get_ddb_bondN3gmx8ArrayRefIK19VirtualSiteTopologyEERKNSt7__cxx1112basic_stringIcSt11char_traitsIcESaIcEEESB_SB_ENK3$_1clINS1_15VirtualSiteBondEEEDaRKT_.exit", label %37

37:                                               ; preds = %35
  %38 = load ptr, ptr %0, align 8, !tbaa !26
  %39 = load ptr, ptr %.8.val, align 8, !tbaa !26
  %bcmp.i9.i = tail call i32 @bcmp(ptr %39, ptr %38, i64 %5)
  %40 = icmp eq i32 %bcmp.i9.i, 0
  br label %"_ZZL12get_ddb_bondN3gmx8ArrayRefIK19VirtualSiteTopologyEERKNSt7__cxx1112basic_stringIcSt11char_traitsIcESaIcEEESB_SB_ENK3$_1clINS1_15VirtualSiteBondEEEDaRKT_.exit"

"_ZZL12get_ddb_bondN3gmx8ArrayRefIK19VirtualSiteTopologyEERKNSt7__cxx1112basic_stringIcSt11char_traitsIcESaIcEEESB_SB_ENK3$_1clINS1_15VirtualSiteBondEEEDaRKT_.exit": ; preds = %18, %_ZSteqIcEN9__gnu_cxx11__enable_ifIXsr9__is_charIT_EE7__valueEbE6__typeERKNSt7__cxx1112basic_stringIS2_St11char_traitsIS2_ESaIS2_EEESC_.exit6.i, %_ZSteqIcEN9__gnu_cxx11__enable_ifIXsr9__is_charIT_EE7__valueEbE6__typeERKNSt7__cxx1112basic_stringIS2_St11char_traitsIS2_ESaIS2_EEESC_.exit.thread1.i, %_ZSteqIcEN9__gnu_cxx11__enable_ifIXsr9__is_charIT_EE7__valueEbE6__typeERKNSt7__cxx1112basic_stringIS2_St11char_traitsIS2_ESaIS2_EEESC_.exit8.i, %_ZSteqIcEN9__gnu_cxx11__enable_ifIXsr9__is_charIT_EE7__valueEbE6__typeERKNSt7__cxx1112basic_stringIS2_St11char_traitsIS2_ESaIS2_EEESC_.exit8.thread.i, %35, %37
  %41 = phi i1 [ true, %_ZSteqIcEN9__gnu_cxx11__enable_ifIXsr9__is_charIT_EE7__valueEbE6__typeERKNSt7__cxx1112basic_stringIS2_St11char_traitsIS2_ESaIS2_EEESC_.exit6.i ], [ false, %_ZSteqIcEN9__gnu_cxx11__enable_ifIXsr9__is_charIT_EE7__valueEbE6__typeERKNSt7__cxx1112basic_stringIS2_St11char_traitsIS2_ESaIS2_EEESC_.exit8.i ], [ false, %_ZSteqIcEN9__gnu_cxx11__enable_ifIXsr9__is_charIT_EE7__valueEbE6__typeERKNSt7__cxx1112basic_stringIS2_St11char_traitsIS2_ESaIS2_EEESC_.exit8.thread.i ], [ %40, %37 ], [ true, %35 ], [ true, %18 ], [ false, %_ZSteqIcEN9__gnu_cxx11__enable_ifIXsr9__is_charIT_EE7__valueEbE6__typeERKNSt7__cxx1112basic_stringIS2_St11char_traitsIS2_ESaIS2_EEESC_.exit.thread1.i ]
  ret i1 %41
}